; ModuleID = '38/1221.c'
source_filename = "38/1221.c"
target datalayout = "e-m:e-p270:32:32-p271:32:32-p272:64:64-i64:64-f80:128-n8:16:32:64-S128"
target triple = "x86_64-pc-linux-gnu"

@.str = private unnamed_addr constant [3 x i8] c"%d\00", align 1
@.str.1 = private unnamed_addr constant [4 x i8] c"%lf\00", align 1
@.str.2 = private unnamed_addr constant [7 x i8] c"%.5lf\0A\00", align 1

; Function Attrs: noinline nounwind uwtable
define dso_local i32 @main(i32 %0, i8** %1) #0 {
  %3 = alloca i32, align 4
  %4 = alloca i32, align 4
  %5 = alloca i8**, align 8
  %6 = alloca i32, align 4
  %7 = alloca [150 x i32], align 16
  %8 = alloca i32, align 4
  %9 = alloca i32, align 4
  %10 = alloca i32, align 4
  %11 = alloca i32, align 4
  %12 = alloca [2000 x double], align 16
  %13 = alloca [150 x double], align 16
  %14 = alloca [150 x double], align 16
  %15 = alloca [150 x double], align 16
  %16 = alloca [150 x double], align 16
  store i32 0, i32* %3, align 4
  store i32 %0, i32* %4, align 4
  store i8** %1, i8*** %5, align 8
  %17 = call i32 (i8*, ...) @__isoc99_scanf(i8* getelementptr inbounds ([3 x i8], [3 x i8]* @.str, i64 0, i64 0), i32* %6)
  store i32 1, i32* %8, align 4
  br label %18

18:                                               ; preds = %130, %2
  %19 = load i32, i32* %8, align 4
  %20 = load i32, i32* %6, align 4
  %21 = icmp sle i32 %19, %20
  br i1 %21, label %22, label %133

22:                                               ; preds = %18
  %23 = load i32, i32* %8, align 4
  %24 = sext i32 %23 to i64
  %25 = getelementptr inbounds [150 x double], [150 x double]* %16, i64 0, i64 %24
  store double 0.000000e+00, double* %25, align 8
  %26 = load i32, i32* %8, align 4
  %27 = sext i32 %26 to i64
  %28 = getelementptr inbounds [150 x double], [150 x double]* %15, i64 0, i64 %27
  store double 0.000000e+00, double* %28, align 8
  %29 = load i32, i32* %8, align 4
  %30 = sext i32 %29 to i64
  %31 = getelementptr inbounds [150 x i32], [150 x i32]* %7, i64 0, i64 %30
  %32 = call i32 (i8*, ...) @__isoc99_scanf(i8* getelementptr inbounds ([3 x i8], [3 x i8]* @.str, i64 0, i64 0), i32* %31)
  store i32 1, i32* %9, align 4
  br label %33

33:                                               ; preds = %45, %22
  %34 = load i32, i32* %9, align 4
  %35 = load i32, i32* %8, align 4
  %36 = sext i32 %35 to i64
  %37 = getelementptr inbounds [150 x i32], [150 x i32]* %7, i64 0, i64 %36
  %38 = load i32, i32* %37, align 4
  %39 = icmp sle i32 %34, %38
  br i1 %39, label %40, label %48

40:                                               ; preds = %33
  %41 = load i32, i32* %9, align 4
  %42 = sext i32 %41 to i64
  %43 = getelementptr inbounds [2000 x double], [2000 x double]* %12, i64 0, i64 %42
  %44 = call i32 (i8*, ...) @__isoc99_scanf(i8* getelementptr inbounds ([4 x i8], [4 x i8]* @.str.1, i64 0, i64 0), double* %43)
  br label %45

45:                                               ; preds = %40
  %46 = load i32, i32* %9, align 4
  %47 = add nsw i32 %46, 1
  store i32 %47, i32* %9, align 4
  br label %33

48:                                               ; preds = %33
  store i32 1, i32* %10, align 4
  br label %49

49:                                               ; preds = %69, %48
  %50 = load i32, i32* %10, align 4
  %51 = load i32, i32* %8, align 4
  %52 = sext i32 %51 to i64
  %53 = getelementptr inbounds [150 x i32], [150 x i32]* %7, i64 0, i64 %52
  %54 = load i32, i32* %53, align 4
  %55 = icmp sle i32 %50, %54
  br i1 %55, label %56, label %72

56:                                               ; preds = %49
  %57 = load i32, i32* %8, align 4
  %58 = sext i32 %57 to i64
  %59 = getelementptr inbounds [150 x double], [150 x double]* %15, i64 0, i64 %58
  %60 = load double, double* %59, align 8
  %61 = load i32, i32* %10, align 4
  %62 = sext i32 %61 to i64
  %63 = getelementptr inbounds [2000 x double], [2000 x double]* %12, i64 0, i64 %62
  %64 = load double, double* %63, align 8
  %65 = fadd double %60, %64
  %66 = load i32, i32* %8, align 4
  %67 = sext i32 %66 to i64
  %68 = getelementptr inbounds [150 x double], [150 x double]* %15, i64 0, i64 %67
  store double %65, double* %68, align 8
  br label %69

69:                                               ; preds = %56
  %70 = load i32, i32* %10, align 4
  %71 = add nsw i32 %70, 1
  store i32 %71, i32* %10, align 4
  br label %49

72:                                               ; preds = %49
  %73 = load i32, i32* %8, align 4
  %74 = sext i32 %73 to i64
  %75 = getelementptr inbounds [150 x double], [150 x double]* %15, i64 0, i64 %74
  %76 = load double, double* %75, align 8
  %77 = load i32, i32* %8, align 4
  %78 = sext i32 %77 to i64
  %79 = getelementptr inbounds [150 x i32], [150 x i32]* %7, i64 0, i64 %78
  %80 = load i32, i32* %79, align 4
  %81 = sitofp i32 %80 to double
  %82 = fdiv double %76, %81
  %83 = load i32, i32* %8, align 4
  %84 = sext i32 %83 to i64
  %85 = getelementptr inbounds [150 x double], [150 x double]* %13, i64 0, i64 %84
  store double %82, double* %85, align 8
  store i32 1, i32* %11, align 4
  br label %86

86:                                               ; preds = %112, %72
  %87 = load i32, i32* %11, align 4
  %88 = load i32, i32* %8, align 4
  %89 = sext i32 %88 to i64
  %90 = getelementptr inbounds [150 x i32], [150 x i32]* %7, i64 0, i64 %89
  %91 = load i32, i32* %90, align 4
  %92 = icmp sle i32 %87, %91
  br i1 %92, label %93, label %115

93:                                               ; preds = %86
  %94 = load i32, i32* %8, align 4
  %95 = sext i32 %94 to i64
  %96 = getelementptr inbounds [150 x double], [150 x double]* %16, i64 0, i64 %95
  %97 = load double, double* %96, align 8
  %98 = load i32, i32* %11, align 4
  %99 = sext i32 %98 to i64
  %100 = getelementptr inbounds [2000 x double], [2000 x double]* %12, i64 0, i64 %99
  %101 = load double, double* %100, align 8
  %102 = load i32, i32* %8, align 4
  %103 = sext i32 %102 to i64
  %104 = getelementptr inbounds [150 x double], [150 x double]* %13, i64 0, i64 %103
  %105 = load double, double* %104, align 8
  %106 = fsub double %101, %105
  %107 = call double @pow(double %106, double 2.000000e+00) #3
  %108 = fadd double %97, %107
  %109 = load i32, i32* %8, align 4
  %110 = sext i32 %109 to i64
  %111 = getelementptr inbounds [150 x double], [150 x double]* %16, i64 0, i64 %110
  store double %108, double* %111, align 8
  br label %112

112:                                              ; preds = %93
  %113 = load i32, i32* %11, align 4
  %114 = add nsw i32 %113, 1
  store i32 %114, i32* %11, align 4
  br label %86

115:                                              ; preds = %86
  %116 = load i32, i32* %8, align 4
  %117 = sext i32 %116 to i64
  %118 = getelementptr inbounds [150 x double], [150 x double]* %16, i64 0, i64 %117
  %119 = load double, double* %118, align 8
  %120 = load i32, i32* %8, align 4
  %121 = sext i32 %120 to i64
  %122 = getelementptr inbounds [150 x i32], [150 x i32]* %7, i64 0, i64 %121
  %123 = load i32, i32* %122, align 4
  %124 = sitofp i32 %123 to double
  %125 = fdiv double %119, %124
  %126 = call double @sqrt(double %125) #3
  %127 = load i32, i32* %8, align 4
  %128 = sext i32 %127 to i64
  %129 = getelementptr inbounds [150 x double], [150 x double]* %14, i64 0, i64 %128
  store double %126, double* %129, align 8
  br label %130

130:                                              ; preds = %115
  %131 = load i32, i32* %8, align 4
  %132 = add nsw i32 %131, 1
  store i32 %132, i32* %8, align 4
  br label %18

133:                                              ; preds = %18
  store i32 1, i32* %8, align 4
  br label %134

134:                                              ; preds = %144, %133
  %135 = load i32, i32* %8, align 4
  %136 = load i32, i32* %6, align 4
  %137 = icmp sle i32 %135, %136
  br i1 %137, label %138, label %147

138:                                              ; preds = %134
  %139 = load i32, i32* %8, align 4
  %140 = sext i32 %139 to i64
  %141 = getelementptr inbounds [150 x double], [150 x double]* %14, i64 0, i64 %140
  %142 = load double, double* %141, align 8
  %143 = call i32 (i8*, ...) @printf(i8* getelementptr inbounds ([7 x i8], [7 x i8]* @.str.2, i64 0, i64 0), double %142)
  br label %144

144:                                              ; preds = %138
  %145 = load i32, i32* %8, align 4
  %146 = add nsw i32 %145, 1
  store i32 %146, i32* %8, align 4
  br label %134

147:                                              ; preds = %134
  ret i32 0
}

declare dso_local i32 @__isoc99_scanf(i8*, ...) #1

; Function Attrs: nounwind
declare dso_local double @pow(double, double) #2

; Function Attrs: nounwind
declare dso_local double @sqrt(double) #2

declare dso_local i32 @printf(i8*, ...) #1


!llvm.module.flags = !{!0}
!llvm.ident = !{!1}

!0 = !{i32 1, !"wchar_size", i32 4}
!1 = !{!"clang version 10.0.0-4ubuntu1 "}
